
HCSR.elf:     file format elf32-avr

Sections:
Idx Name          Size      VMA       LMA       File off  Algn
  0 .data         00000002  00800100  000003ae  00000442  2**0
                  CONTENTS, ALLOC, LOAD, DATA
  1 .text         000003ae  00000000  00000000  00000094  2**1
                  CONTENTS, ALLOC, LOAD, READONLY, CODE
  2 .bss          0000002e  00800102  00800102  00000444  2**0
                  ALLOC
  3 .comment      00000030  00000000  00000000  00000444  2**0
                  CONTENTS, READONLY
  4 .note.gnu.avr.deviceinfo 00000040  00000000  00000000  00000474  2**2
                  CONTENTS, READONLY
  5 .debug_aranges 00000060  00000000  00000000  000004b4  2**0
                  CONTENTS, READONLY, DEBUGGING
  6 .debug_info   00000a37  00000000  00000000  00000514  2**0
                  CONTENTS, READONLY, DEBUGGING
  7 .debug_abbrev 00000746  00000000  00000000  00000f4b  2**0
                  CONTENTS, READONLY, DEBUGGING
  8 .debug_line   00000408  00000000  00000000  00001691  2**0
                  CONTENTS, READONLY, DEBUGGING
  9 .debug_frame  00000100  00000000  00000000  00001a9c  2**2
                  CONTENTS, READONLY, DEBUGGING
 10 .debug_str    0000048c  00000000  00000000  00001b9c  2**0
                  CONTENTS, READONLY, DEBUGGING
 11 .debug_loc    0000018d  00000000  00000000  00002028  2**0
                  CONTENTS, READONLY, DEBUGGING
 12 .debug_ranges 00000050  00000000  00000000  000021b5  2**0
                  CONTENTS, READONLY, DEBUGGING

Disassembly of section .text:

00000000 <__vectors>:
   0:	0c 94 34 00 	jmp	0x68	; 0x68 <__ctors_end>
   4:	0c 94 51 00 	jmp	0xa2	; 0xa2 <__bad_interrupt>
   8:	0c 94 51 00 	jmp	0xa2	; 0xa2 <__bad_interrupt>
   c:	0c 94 51 00 	jmp	0xa2	; 0xa2 <__bad_interrupt>
  10:	0c 94 51 00 	jmp	0xa2	; 0xa2 <__bad_interrupt>
  14:	0c 94 51 00 	jmp	0xa2	; 0xa2 <__bad_interrupt>
  18:	0c 94 51 00 	jmp	0xa2	; 0xa2 <__bad_interrupt>
  1c:	0c 94 51 00 	jmp	0xa2	; 0xa2 <__bad_interrupt>
  20:	0c 94 51 00 	jmp	0xa2	; 0xa2 <__bad_interrupt>
  24:	0c 94 51 00 	jmp	0xa2	; 0xa2 <__bad_interrupt>
  28:	0c 94 81 00 	jmp	0x102	; 0x102 <__vector_10>
  2c:	0c 94 72 00 	jmp	0xe4	; 0xe4 <__vector_11>
  30:	0c 94 53 00 	jmp	0xa6	; 0xa6 <__vector_12>
  34:	0c 94 51 00 	jmp	0xa2	; 0xa2 <__bad_interrupt>
  38:	0c 94 51 00 	jmp	0xa2	; 0xa2 <__bad_interrupt>
  3c:	0c 94 51 00 	jmp	0xa2	; 0xa2 <__bad_interrupt>
  40:	0c 94 51 00 	jmp	0xa2	; 0xa2 <__bad_interrupt>
  44:	0c 94 51 00 	jmp	0xa2	; 0xa2 <__bad_interrupt>
  48:	0c 94 51 00 	jmp	0xa2	; 0xa2 <__bad_interrupt>
  4c:	0c 94 51 00 	jmp	0xa2	; 0xa2 <__bad_interrupt>
  50:	0c 94 51 00 	jmp	0xa2	; 0xa2 <__bad_interrupt>
  54:	0c 94 51 00 	jmp	0xa2	; 0xa2 <__bad_interrupt>
  58:	0c 94 51 00 	jmp	0xa2	; 0xa2 <__bad_interrupt>
  5c:	0c 94 51 00 	jmp	0xa2	; 0xa2 <__bad_interrupt>
  60:	0c 94 51 00 	jmp	0xa2	; 0xa2 <__bad_interrupt>
  64:	0c 94 51 00 	jmp	0xa2	; 0xa2 <__bad_interrupt>

00000068 <__ctors_end>:
  68:	11 24       	eor	r1, r1
  6a:	1f be       	out	0x3f, r1	; 63
  6c:	cf ef       	ldi	r28, 0xFF	; 255
  6e:	d8 e0       	ldi	r29, 0x08	; 8
  70:	de bf       	out	0x3e, r29	; 62
  72:	cd bf       	out	0x3d, r28	; 61

00000074 <__do_copy_data>:
  74:	11 e0       	ldi	r17, 0x01	; 1
  76:	a0 e0       	ldi	r26, 0x00	; 0
  78:	b1 e0       	ldi	r27, 0x01	; 1
  7a:	ee ea       	ldi	r30, 0xAE	; 174
  7c:	f3 e0       	ldi	r31, 0x03	; 3
  7e:	02 c0       	rjmp	.+4      	; 0x84 <__do_copy_data+0x10>
  80:	05 90       	lpm	r0, Z+
  82:	0d 92       	st	X+, r0
  84:	a2 30       	cpi	r26, 0x02	; 2
  86:	b1 07       	cpc	r27, r17
  88:	d9 f7       	brne	.-10     	; 0x80 <__do_copy_data+0xc>

0000008a <__do_clear_bss>:
  8a:	21 e0       	ldi	r18, 0x01	; 1
  8c:	a2 e0       	ldi	r26, 0x02	; 2
  8e:	b1 e0       	ldi	r27, 0x01	; 1
  90:	01 c0       	rjmp	.+2      	; 0x94 <.do_clear_bss_start>

00000092 <.do_clear_bss_loop>:
  92:	1d 92       	st	X+, r1

00000094 <.do_clear_bss_start>:
  94:	a0 33       	cpi	r26, 0x30	; 48
  96:	b2 07       	cpc	r27, r18
  98:	e1 f7       	brne	.-8      	; 0x92 <.do_clear_bss_loop>
  9a:	0e 94 8f 01 	call	0x31e	; 0x31e <main>
  9e:	0c 94 d5 01 	jmp	0x3aa	; 0x3aa <_exit>

000000a2 <__bad_interrupt>:
  a2:	0c 94 00 00 	jmp	0	; 0x0 <__vectors>

000000a6 <__vector_12>:

/* END Constant in Flash -----------------------------------------------------*/


/* Function ISR --------------------------------------------------------------*/
ISR(TIMER1_COMPB_vect){
  a6:	1f 92       	push	r1
  a8:	0f 92       	push	r0
  aa:	0f b6       	in	r0, 0x3f	; 63
  ac:	0f 92       	push	r0
  ae:	11 24       	eor	r1, r1
  b0:	8f 93       	push	r24
  b2:	9f 93       	push	r25
  b4:	ef 93       	push	r30
  b6:	ff 93       	push	r31
	
	IS10MS=TRUE;
  b8:	80 91 0d 01 	lds	r24, 0x010D	; 0x80010d <flag1>
  bc:	82 60       	ori	r24, 0x02	; 2
  be:	80 93 0d 01 	sts	0x010D, r24	; 0x80010d <flag1>
	OCR1B += 20000;
  c2:	ea e8       	ldi	r30, 0x8A	; 138
  c4:	f0 e0       	ldi	r31, 0x00	; 0
  c6:	80 81       	ld	r24, Z
  c8:	91 81       	ldd	r25, Z+1	; 0x01
  ca:	80 5e       	subi	r24, 0xE0	; 224
  cc:	91 4b       	sbci	r25, 0xB1	; 177
  ce:	91 83       	std	Z+1, r25	; 0x01
  d0:	80 83       	st	Z, r24
	
}
  d2:	ff 91       	pop	r31
  d4:	ef 91       	pop	r30
  d6:	9f 91       	pop	r25
  d8:	8f 91       	pop	r24
  da:	0f 90       	pop	r0
  dc:	0f be       	out	0x3f, r0	; 63
  de:	0f 90       	pop	r0
  e0:	1f 90       	pop	r1
  e2:	18 95       	reti

000000e4 <__vector_11>:

//entro aca cuando devuelve el echo 
ISR(TIMER1_COMPA_vect){
  e4:	1f 92       	push	r1
  e6:	0f 92       	push	r0
  e8:	0f b6       	in	r0, 0x3f	; 63
  ea:	0f 92       	push	r0
  ec:	11 24       	eor	r1, r1
  ee:	8f 93       	push	r24
	meas_state = MEAS_WAIT_FOR_ECHO;
  f0:	82 e0       	ldi	r24, 0x02	; 2
  f2:	80 93 02 01 	sts	0x0102, r24	; 0x800102 <__data_end>
}
  f6:	8f 91       	pop	r24
  f8:	0f 90       	pop	r0
  fa:	0f be       	out	0x3f, r0	; 63
  fc:	0f 90       	pop	r0
  fe:	1f 90       	pop	r1
 100:	18 95       	reti

00000102 <__vector_10>:

ISR(TIMER1_CAPT_vect){
 102:	1f 92       	push	r1
 104:	0f 92       	push	r0
 106:	0f b6       	in	r0, 0x3f	; 63
 108:	0f 92       	push	r0
 10a:	11 24       	eor	r1, r1
 10c:	8f 93       	push	r24
 10e:	9f 93       	push	r25
 110:	ef 93       	push	r30
 112:	ff 93       	push	r31
	
	//ices1 es el input capture edge , me decta el falco desendente en caso de ser 0
	if(TCCR1B & _BV(ICES1)){
 114:	80 91 81 00 	lds	r24, 0x0081	; 0x800081 <__TEXT_REGION_LENGTH__+0x7f8081>
 118:	86 ff       	sbrs	r24, 6
 11a:	11 c0       	rjmp	.+34     	; 0x13e <__vector_10+0x3c>
		timehc.startEcho = ICR1;
 11c:	80 91 86 00 	lds	r24, 0x0086	; 0x800086 <__TEXT_REGION_LENGTH__+0x7f8086>
 120:	90 91 87 00 	lds	r25, 0x0087	; 0x800087 <__TEXT_REGION_LENGTH__+0x7f8087>
 124:	90 93 08 01 	sts	0x0108, r25	; 0x800108 <timehc+0x1>
 128:	80 93 07 01 	sts	0x0107, r24	; 0x800107 <timehc>
		TCCR1B &= ~_BV(ICES1);
 12c:	e1 e8       	ldi	r30, 0x81	; 129
 12e:	f0 e0       	ldi	r31, 0x00	; 0
 130:	80 81       	ld	r24, Z
 132:	8f 7b       	andi	r24, 0xBF	; 191
 134:	80 83       	st	Z, r24
		PORTB |= (1<<Led2);
 136:	85 b1       	in	r24, 0x05	; 5
 138:	84 60       	ori	r24, 0x04	; 4
 13a:	85 b9       	out	0x05, r24	; 5
 13c:	0b c0       	rjmp	.+22     	; 0x154 <__vector_10+0x52>
		//rising
	}else{
		//falling
		timehc.stopEcho = ICR1;
 13e:	80 91 86 00 	lds	r24, 0x0086	; 0x800086 <__TEXT_REGION_LENGTH__+0x7f8086>
 142:	90 91 87 00 	lds	r25, 0x0087	; 0x800087 <__TEXT_REGION_LENGTH__+0x7f8087>
 146:	90 93 0a 01 	sts	0x010A, r25	; 0x80010a <timehc+0x3>
 14a:	80 93 09 01 	sts	0x0109, r24	; 0x800109 <timehc+0x2>
		meas_state = MEAS_DONE;
 14e:	83 e0       	ldi	r24, 0x03	; 3
 150:	80 93 02 01 	sts	0x0102, r24	; 0x800102 <__data_end>
	}
}
 154:	ff 91       	pop	r31
 156:	ef 91       	pop	r30
 158:	9f 91       	pop	r25
 15a:	8f 91       	pop	r24
 15c:	0f 90       	pop	r0
 15e:	0f be       	out	0x3f, r0	; 63
 160:	0f 90       	pop	r0
 162:	1f 90       	pop	r1
 164:	18 95       	reti

00000166 <ini_ports>:
/* Function prototypes user code ----------------------------------------------*/
void ini_ports(){
	
	//DDRB = ((1 << Led) | (0 << SW0) | (0<<Echo) | (1<<Trigger));
	//OUTPUTS
	DDRB = ((1 << Led) | (1 << Led1) | (1 << Led2) | (1 << Led3) | (1 << Trigger));
 166:	8e e3       	ldi	r24, 0x3E	; 62
 168:	84 b9       	out	0x04, r24	; 4
	//INPUTS
	DDRB &= ~(1<<Echo);
 16a:	84 b1       	in	r24, 0x04	; 4
 16c:	8e 7f       	andi	r24, 0xFE	; 254
 16e:	84 b9       	out	0x04, r24	; 4
	//PORTB = ((1 << SW0) | (1<<Trigger));
	PORTB = (1<<Echo);
 170:	81 e0       	ldi	r24, 0x01	; 1
 172:	85 b9       	out	0x05, r24	; 5
 174:	08 95       	ret

00000176 <ini_timer1>:
}

void ini_timer1(){
	
	TCCR1A = 0x00;
 176:	10 92 80 00 	sts	0x0080, r1	; 0x800080 <__TEXT_REGION_LENGTH__+0x7f8080>
	//configuro el Prescaler 8 (f = 16MHz / 8 = 2MHz ? 1 tick = 0.5 µs)
	TCCR1B = 0xC2;
 17a:	82 ec       	ldi	r24, 0xC2	; 194
 17c:	80 93 81 00 	sts	0x0081, r24	; 0x800081 <__TEXT_REGION_LENGTH__+0x7f8081>
	// CONFIGURACION DE LA CANCELACION DE RUIDO
	TCNT1 = 0x00;
 180:	10 92 85 00 	sts	0x0085, r1	; 0x800085 <__TEXT_REGION_LENGTH__+0x7f8085>
 184:	10 92 84 00 	sts	0x0084, r1	; 0x800084 <__TEXT_REGION_LENGTH__+0x7f8084>
	TIMSK1 = (1<<OCIE1B); 
 188:	84 e0       	ldi	r24, 0x04	; 4
 18a:	80 93 6f 00 	sts	0x006F, r24	; 0x80006f <__TEXT_REGION_LENGTH__+0x7f806f>
	OCR1B = 19999;
 18e:	8f e1       	ldi	r24, 0x1F	; 31
 190:	9e e4       	ldi	r25, 0x4E	; 78
 192:	90 93 8b 00 	sts	0x008B, r25	; 0x80008b <__TEXT_REGION_LENGTH__+0x7f808b>
 196:	80 93 8a 00 	sts	0x008A, r24	; 0x80008a <__TEXT_REGION_LENGTH__+0x7f808a>
	TIFR1 = TIFR1;
 19a:	86 b3       	in	r24, 0x16	; 22
 19c:	86 bb       	out	0x16, r24	; 22
 19e:	08 95       	ret

000001a0 <ini_UART>:
	
}

void ini_UART(uint16_t Config){
	UBRR0H = (unsigned char)(Config>>8);
 1a0:	90 93 c5 00 	sts	0x00C5, r25	; 0x8000c5 <__TEXT_REGION_LENGTH__+0x7f80c5>
	UBRR0L = (unsigned char)Config;
 1a4:	80 93 c4 00 	sts	0x00C4, r24	; 0x8000c4 <__TEXT_REGION_LENGTH__+0x7f80c4>
	
	UCSR0A = 0xFE; //inicializo todas las banderas excepto el multiprocesor
 1a8:	8e ef       	ldi	r24, 0xFE	; 254
 1aa:	80 93 c0 00 	sts	0x00C0, r24	; 0x8000c0 <__TEXT_REGION_LENGTH__+0x7f80c0>
	/*Enable receiver and transmitter */
	UCSR0B = (1<<RXCIE0) | (1<<RXEN0)|(1<<TXEN0);
 1ae:	88 e9       	ldi	r24, 0x98	; 152
 1b0:	80 93 c1 00 	sts	0x00C1, r24	; 0x8000c1 <__TEXT_REGION_LENGTH__+0x7f80c1>
	/* Set frame format: 8data, 2stop bit */
	UCSR0C =  (0<<UCSZ02) | (1<<UCSZ01) | (1<<UCSZ00);
 1b4:	86 e0       	ldi	r24, 0x06	; 6
 1b6:	80 93 c2 00 	sts	0x00C2, r24	; 0x8000c2 <__TEXT_REGION_LENGTH__+0x7f80c2>
 1ba:	08 95       	ret

000001bc <Measure>:
}

void Measure(){
 1bc:	cf 93       	push	r28
 1be:	df 93       	push	r29
	
	switch(meas_state){
 1c0:	80 91 02 01 	lds	r24, 0x0102	; 0x800102 <__data_end>
 1c4:	81 30       	cpi	r24, 0x01	; 1
 1c6:	71 f0       	breq	.+28     	; 0x1e4 <Measure+0x28>
 1c8:	28 f0       	brcs	.+10     	; 0x1d4 <Measure+0x18>
 1ca:	82 30       	cpi	r24, 0x02	; 2
 1cc:	71 f1       	breq	.+92     	; 0x22a <Measure+0x6e>
 1ce:	83 30       	cpi	r24, 0x03	; 3
 1d0:	d1 f1       	breq	.+116    	; 0x246 <Measure+0x8a>
 1d2:	90 c0       	rjmp	.+288    	; 0x2f4 <Measure+0x138>
		
		case MEAS_IDLE:
			if(ECHOREADY){
 1d4:	80 91 0d 01 	lds	r24, 0x010D	; 0x80010d <flag1>
 1d8:	83 ff       	sbrs	r24, 3
 1da:	8c c0       	rjmp	.+280    	; 0x2f4 <Measure+0x138>
				meas_state = MEAS_TRIGGER;
 1dc:	81 e0       	ldi	r24, 0x01	; 1
 1de:	80 93 02 01 	sts	0x0102, r24	; 0x800102 <__data_end>
 1e2:	88 c0       	rjmp	.+272    	; 0x2f4 <Measure+0x138>
			}
		break;
		
		case MEAS_TRIGGER:
		//aca debo esperar los 10us y pasar a wait for echo
			if(ECHOREADY){
 1e4:	80 91 0d 01 	lds	r24, 0x010D	; 0x80010d <flag1>
 1e8:	83 ff       	sbrs	r24, 3
 1ea:	84 c0       	rjmp	.+264    	; 0x2f4 <Measure+0x138>
			
				PORTB |= (1<<Trigger);//lanzo el trigger
 1ec:	85 b1       	in	r24, 0x05	; 5
 1ee:	82 60       	ori	r24, 0x02	; 2
 1f0:	85 b9       	out	0x05, r24	; 5
				OCR1A = TCNT1 + 19;//hago una interrupcion a 20 ciclos que son 10us
 1f2:	80 91 84 00 	lds	r24, 0x0084	; 0x800084 <__TEXT_REGION_LENGTH__+0x7f8084>
 1f6:	90 91 85 00 	lds	r25, 0x0085	; 0x800085 <__TEXT_REGION_LENGTH__+0x7f8085>
 1fa:	43 96       	adiw	r24, 0x13	; 19
 1fc:	90 93 89 00 	sts	0x0089, r25	; 0x800089 <__TEXT_REGION_LENGTH__+0x7f8089>
 200:	80 93 88 00 	sts	0x0088, r24	; 0x800088 <__TEXT_REGION_LENGTH__+0x7f8088>
				ECHOREADY = FALSE;
 204:	80 91 0d 01 	lds	r24, 0x010D	; 0x80010d <flag1>
 208:	87 7f       	andi	r24, 0xF7	; 247
 20a:	80 93 0d 01 	sts	0x010D, r24	; 0x80010d <flag1>
				TIMSK1 |= (1<<OCIE1A);
 20e:	ef e6       	ldi	r30, 0x6F	; 111
 210:	f0 e0       	ldi	r31, 0x00	; 0
 212:	80 81       	ld	r24, Z
 214:	82 60       	ori	r24, 0x02	; 2
 216:	80 83       	st	Z, r24
				PORTB |= (1<<Led1);
 218:	85 b1       	in	r24, 0x05	; 5
 21a:	80 61       	ori	r24, 0x10	; 16
 21c:	85 b9       	out	0x05, r24	; 5
				TCCR1B |= _BV(ICES1);
 21e:	e1 e8       	ldi	r30, 0x81	; 129
 220:	f0 e0       	ldi	r31, 0x00	; 0
 222:	80 81       	ld	r24, Z
 224:	80 64       	ori	r24, 0x40	; 64
 226:	80 83       	st	Z, r24
 228:	65 c0       	rjmp	.+202    	; 0x2f4 <Measure+0x138>
		break;
		
		case MEAS_WAIT_FOR_ECHO:
			
			//apago el trigger y espero a que devuelva el echo en la interrupcion del input caputre
			if (PORTB & (1<<Trigger)){
 22a:	29 9b       	sbis	0x05, 1	; 5
 22c:	63 c0       	rjmp	.+198    	; 0x2f4 <Measure+0x138>
			
				PORTB &= ~(1<<Trigger);
 22e:	85 b1       	in	r24, 0x05	; 5
 230:	8d 7f       	andi	r24, 0xFD	; 253
 232:	85 b9       	out	0x05, r24	; 5
				TIMSK1 |= (1 << ICIE1);
 234:	ef e6       	ldi	r30, 0x6F	; 111
 236:	f0 e0       	ldi	r31, 0x00	; 0
 238:	80 81       	ld	r24, Z
 23a:	80 62       	ori	r24, 0x20	; 32
 23c:	80 83       	st	Z, r24
				TIMSK1 &= ~(1<<OCIE1A);
 23e:	80 81       	ld	r24, Z
 240:	8d 7f       	andi	r24, 0xFD	; 253
 242:	80 83       	st	Z, r24
 244:	57 c0       	rjmp	.+174    	; 0x2f4 <Measure+0x138>
				
			}
		break;
		
		case MEAS_DONE: //obtengo la distancia en cm
			if(timehc.startEcho <= timehc.stopEcho){
 246:	e7 e0       	ldi	r30, 0x07	; 7
 248:	f1 e0       	ldi	r31, 0x01	; 1
 24a:	20 81       	ld	r18, Z
 24c:	31 81       	ldd	r19, Z+1	; 0x01
 24e:	82 81       	ldd	r24, Z+2	; 0x02
 250:	93 81       	ldd	r25, Z+3	; 0x03
 252:	82 17       	cp	r24, r18
 254:	93 07       	cpc	r25, r19
 256:	48 f0       	brcs	.+18     	; 0x26a <Measure+0xae>
				timehc.distance = timehc.stopEcho - timehc.startEcho;
 258:	82 81       	ldd	r24, Z+2	; 0x02
 25a:	93 81       	ldd	r25, Z+3	; 0x03
 25c:	20 81       	ld	r18, Z
 25e:	31 81       	ldd	r19, Z+1	; 0x01
 260:	82 1b       	sub	r24, r18
 262:	93 0b       	sbc	r25, r19
 264:	95 83       	std	Z+5, r25	; 0x05
 266:	84 83       	std	Z+4, r24	; 0x04
 268:	0b c0       	rjmp	.+22     	; 0x280 <Measure+0xc4>
				}else{
				timehc.distance = timehc.stopEcho - timehc.startEcho + 0xffff;
 26a:	e7 e0       	ldi	r30, 0x07	; 7
 26c:	f1 e0       	ldi	r31, 0x01	; 1
 26e:	82 81       	ldd	r24, Z+2	; 0x02
 270:	93 81       	ldd	r25, Z+3	; 0x03
 272:	20 81       	ld	r18, Z
 274:	31 81       	ldd	r19, Z+1	; 0x01
 276:	82 1b       	sub	r24, r18
 278:	93 0b       	sbc	r25, r19
 27a:	01 97       	sbiw	r24, 0x01	; 1
 27c:	95 83       	std	Z+5, r25	; 0x05
 27e:	84 83       	std	Z+4, r24	; 0x04
			}
			
			timehc.distance = timehc.distance/116;
 280:	e7 e0       	ldi	r30, 0x07	; 7
 282:	f1 e0       	ldi	r31, 0x01	; 1
 284:	24 81       	ldd	r18, Z+4	; 0x04
 286:	35 81       	ldd	r19, Z+5	; 0x05
 288:	af e9       	ldi	r26, 0x9F	; 159
 28a:	b6 e4       	ldi	r27, 0x46	; 70
 28c:	0e 94 c6 01 	call	0x38c	; 0x38c <__umulhisi3>
 290:	96 95       	lsr	r25
 292:	87 95       	ror	r24
 294:	92 95       	swap	r25
 296:	82 95       	swap	r24
 298:	8f 70       	andi	r24, 0x0F	; 15
 29a:	89 27       	eor	r24, r25
 29c:	9f 70       	andi	r25, 0x0F	; 15
 29e:	89 27       	eor	r24, r25
 2a0:	95 83       	std	Z+5, r25	; 0x05
 2a2:	84 83       	std	Z+4, r24	; 0x04
			
			Converse.ui16[0] = timehc.distance;
 2a4:	c3 e0       	ldi	r28, 0x03	; 3
 2a6:	d1 e0       	ldi	r29, 0x01	; 1
 2a8:	99 83       	std	Y+1, r25	; 0x01
 2aa:	88 83       	st	Y, r24
			DatoSerie.bufferTx[DatoSerie.indexWriteTx++]= Converse.ui8[1];
 2ac:	8e e0       	ldi	r24, 0x0E	; 14
 2ae:	91 e0       	ldi	r25, 0x01	; 1
 2b0:	dc 01       	movw	r26, r24
 2b2:	ec 91       	ld	r30, X
 2b4:	a1 e0       	ldi	r26, 0x01	; 1
 2b6:	ae 0f       	add	r26, r30
 2b8:	f0 e0       	ldi	r31, 0x00	; 0
 2ba:	29 81       	ldd	r18, Y+1	; 0x01
 2bc:	e2 5f       	subi	r30, 0xF2	; 242
 2be:	fe 4f       	sbci	r31, 0xFE	; 254
 2c0:	22 83       	std	Z+2, r18	; 0x02
			DatoSerie.bufferTx[DatoSerie.indexWriteTx++]= Converse.ui8[0];
 2c2:	e1 e0       	ldi	r30, 0x01	; 1
 2c4:	ea 0f       	add	r30, r26
 2c6:	b0 e0       	ldi	r27, 0x00	; 0
 2c8:	28 81       	ld	r18, Y
 2ca:	a2 5f       	subi	r26, 0xF2	; 242
 2cc:	be 4f       	sbci	r27, 0xFE	; 254
 2ce:	12 96       	adiw	r26, 0x02	; 2
 2d0:	2c 93       	st	X, r18
		
			
			DatoSerie.bufferTx[DatoSerie.indexWriteTx++]= 32;
 2d2:	21 e0       	ldi	r18, 0x01	; 1
 2d4:	2e 0f       	add	r18, r30
 2d6:	dc 01       	movw	r26, r24
 2d8:	2c 93       	st	X, r18
 2da:	f0 e0       	ldi	r31, 0x00	; 0
 2dc:	e2 5f       	subi	r30, 0xF2	; 242
 2de:	fe 4f       	sbci	r31, 0xFE	; 254
 2e0:	80 e2       	ldi	r24, 0x20	; 32
 2e2:	82 83       	std	Z+2, r24	; 0x02
			meas_state=MEAS_IDLE;
 2e4:	10 92 02 01 	sts	0x0102, r1	; 0x800102 <__data_end>
			PORTB &= ~(1<<Led1);
 2e8:	85 b1       	in	r24, 0x05	; 5
 2ea:	8f 7e       	andi	r24, 0xEF	; 239
 2ec:	85 b9       	out	0x05, r24	; 5
			PORTB &= ~(1<<Led2);
 2ee:	85 b1       	in	r24, 0x05	; 5
 2f0:	8b 7f       	andi	r24, 0xFB	; 251
 2f2:	85 b9       	out	0x05, r24	; 5
		
		break;
		
	}
	return;
}
 2f4:	df 91       	pop	r29
 2f6:	cf 91       	pop	r28
 2f8:	08 95       	ret

000002fa <sendUart>:
/* END Function prototypes user code ------------------------------------------*/

void sendUart(_sDato* datosCom){
 2fa:	fc 01       	movw	r30, r24
	if (datosCom->indexReadTx != datosCom->indexWriteTx) {
 2fc:	81 81       	ldd	r24, Z+1	; 0x01
 2fe:	90 81       	ld	r25, Z
 300:	89 17       	cp	r24, r25
 302:	61 f0       	breq	.+24     	; 0x31c <sendUart+0x22>
		if (UCSR0A & (1 << UDRE0)) { // Si el buffer de transmisión está vacío
 304:	90 91 c0 00 	lds	r25, 0x00C0	; 0x8000c0 <__TEXT_REGION_LENGTH__+0x7f80c0>
 308:	95 ff       	sbrs	r25, 5
 30a:	08 c0       	rjmp	.+16     	; 0x31c <sendUart+0x22>
			UDR0 = datosCom->bufferTx[datosCom->indexReadTx++]; // Enviar el dato
 30c:	91 e0       	ldi	r25, 0x01	; 1
 30e:	98 0f       	add	r25, r24
 310:	91 83       	std	Z+1, r25	; 0x01
 312:	e8 0f       	add	r30, r24
 314:	f1 1d       	adc	r31, r1
 316:	82 81       	ldd	r24, Z+2	; 0x02
 318:	80 93 c6 00 	sts	0x00C6, r24	; 0x8000c6 <__TEXT_REGION_LENGTH__+0x7f80c6>
 31c:	08 95       	ret

0000031e <main>:
	//datosCom->indexWriteTx &= 0xF1; //31
	//datosCom->indexReadTx &= 0xF1; //31
}
int main()
{
	cli();
 31e:	f8 94       	cli
	/* Local variables -----------------------------------------------------------*/
	static uint8_t Mytimer = 10;
	/* END Local variables -------------------------------------------------------*/

	/* User code Init ------------------------------------------------------------*/
	ini_ports();
 320:	0e 94 b3 00 	call	0x166	; 0x166 <ini_ports>
	ini_timer1();
 324:	0e 94 bb 00 	call	0x176	; 0x176 <ini_timer1>
	ini_UART(16);
 328:	80 e1       	ldi	r24, 0x10	; 16
 32a:	90 e0       	ldi	r25, 0x00	; 0
 32c:	0e 94 d0 00 	call	0x1a0	; 0x1a0 <ini_UART>
	ECHOREADY=TRUE;
 330:	80 91 0d 01 	lds	r24, 0x010D	; 0x80010d <flag1>
 334:	88 60       	ori	r24, 0x08	; 8
 336:	80 93 0d 01 	sts	0x010D, r24	; 0x80010d <flag1>
	timehc.distance=0;
 33a:	10 92 0c 01 	sts	0x010C, r1	; 0x80010c <timehc+0x5>
 33e:	10 92 0b 01 	sts	0x010B, r1	; 0x80010b <timehc+0x4>
	/* END User code Init --------------------------------------------------------*/

	sei();
 342:	78 94       	sei
	
	while (1){
		/* User Code loop ------------------------------------------------------------*/
		Measure();
 344:	0e 94 de 00 	call	0x1bc	; 0x1bc <Measure>
		sendUart(&DatoSerie);
 348:	8e e0       	ldi	r24, 0x0E	; 14
 34a:	91 e0       	ldi	r25, 0x01	; 1
 34c:	0e 94 7d 01 	call	0x2fa	; 0x2fa <sendUart>
		if(IS10MS){
 350:	80 91 0d 01 	lds	r24, 0x010D	; 0x80010d <flag1>
 354:	81 ff       	sbrs	r24, 1
 356:	f6 cf       	rjmp	.-20     	; 0x344 <main+0x26>
			Mytimer--;
 358:	80 91 00 01 	lds	r24, 0x0100	; 0x800100 <__DATA_REGION_ORIGIN__>
 35c:	81 50       	subi	r24, 0x01	; 1
 35e:	80 93 00 01 	sts	0x0100, r24	; 0x800100 <__DATA_REGION_ORIGIN__>
			IS10MS=0;
 362:	90 91 0d 01 	lds	r25, 0x010D	; 0x80010d <flag1>
 366:	9d 7f       	andi	r25, 0xFD	; 253
 368:	90 93 0d 01 	sts	0x010D, r25	; 0x80010d <flag1>
			
			if (!Mytimer){
 36c:	81 11       	cpse	r24, r1
 36e:	ea cf       	rjmp	.-44     	; 0x344 <main+0x26>
				Mytimer=10;
 370:	8a e0       	ldi	r24, 0x0A	; 10
 372:	80 93 00 01 	sts	0x0100, r24	; 0x800100 <__DATA_REGION_ORIGIN__>
				ECHOREADY=1;
 376:	89 2f       	mov	r24, r25
 378:	88 60       	ori	r24, 0x08	; 8
 37a:	80 93 0d 01 	sts	0x010D, r24	; 0x80010d <flag1>
				meas_state=MEAS_IDLE;
 37e:	10 92 02 01 	sts	0x0102, r1	; 0x800102 <__data_end>
				PORTB ^= (1<<Led);
 382:	95 b1       	in	r25, 0x05	; 5
 384:	80 e2       	ldi	r24, 0x20	; 32
 386:	89 27       	eor	r24, r25
 388:	85 b9       	out	0x05, r24	; 5
 38a:	dc cf       	rjmp	.-72     	; 0x344 <main+0x26>

0000038c <__umulhisi3>:
 38c:	a2 9f       	mul	r26, r18
 38e:	b0 01       	movw	r22, r0
 390:	b3 9f       	mul	r27, r19
 392:	c0 01       	movw	r24, r0
 394:	a3 9f       	mul	r26, r19
 396:	70 0d       	add	r23, r0
 398:	81 1d       	adc	r24, r1
 39a:	11 24       	eor	r1, r1
 39c:	91 1d       	adc	r25, r1
 39e:	b2 9f       	mul	r27, r18
 3a0:	70 0d       	add	r23, r0
 3a2:	81 1d       	adc	r24, r1
 3a4:	11 24       	eor	r1, r1
 3a6:	91 1d       	adc	r25, r1
 3a8:	08 95       	ret

000003aa <_exit>:
 3aa:	f8 94       	cli

000003ac <__stop_program>:
 3ac:	ff cf       	rjmp	.-2      	; 0x3ac <__stop_program>
